target datalayout = "e-m:e-p270:32:32-p271:32:32-p272:64:64-i64:64-i128:128-f80:128-n8:16:32:64-S128"
target triple = "x86_64-unknown-linux-gnu"

%"class.rocksdb::Slice" = type { ptr, i64 }
%"class.rocksdb::BlockHandle" = type { i64, i64 }
%"class.rocksdb::Status" = type { i8, i8, i8, i8, i8, i8, %"class.std::unique_ptr" }
%"class.std::unique_ptr" = type { %"struct.std::__uniq_ptr_data" }
%"struct.std::__uniq_ptr_data" = type { %"class.std::__uniq_ptr_impl" }
%"class.std::__uniq_ptr_impl" = type { %"class.std::tuple" }
%"class.std::tuple" = type { %"struct.std::_Tuple_impl" }
%"struct.std::_Tuple_impl" = type { %"struct.std::_Head_base.13" }
%"struct.std::_Head_base.13" = type { ptr }
%"class.rocksdb::BlockBasedTable" = type { %"class.rocksdb::TableReader", ptr, ptr }
%"class.rocksdb::TableReader" = type { ptr }
%"struct.rocksdb::BlockBasedTable::Rep" = type { ptr, ptr, %"struct.rocksdb::BlockBasedTableOptions", ptr, ptr, %"class.rocksdb::Status", %"class.std::unique_ptr.14", %"class.rocksdb::OffsetableCacheKey", %"struct.rocksdb::PersistentCacheOptions", %"class.rocksdb::Footer", %"class.std::unique_ptr.22", %"class.std::unique_ptr.30", %"class.std::unique_ptr.38", i32, %"class.rocksdb::BlockHandle", %"class.rocksdb::BlockHandle", %"class.std::shared_ptr.46", %"class.rocksdb::BlockHandle", i8, i8, i8, %"class.std::shared_ptr.49", %"class.std::shared_ptr.52", %"struct.rocksdb::BlockCreateContext", i64, i64, i32, %"class.rocksdb::Slice", %"class.rocksdb::Slice", i8, i8, i8, i8, i8, i8, i8, %"class.std::unique_ptr.55" }
%"struct.rocksdb::BlockBasedTableOptions" = type { %"class.std::shared_ptr", i8, i8, i8, i8, %"struct.rocksdb::MetadataCacheOptions", i8, i8, double, i8, i8, %"class.std::shared_ptr.0", %"class.std::shared_ptr.3", i64, i32, i32, i32, i64, %"struct.rocksdb::CacheUsageOptions", i8, i8, i8, %"class.std::shared_ptr.9", i8, i8, i8, i32, i32, i8, i8, i8, i64, i8, i64, i64 }
%"class.std::shared_ptr" = type { %"class.std::__shared_ptr" }
%"class.std::__shared_ptr" = type { ptr, %"class.std::__shared_count" }
%"class.std::__shared_count" = type { ptr }
%"struct.rocksdb::MetadataCacheOptions" = type { i32, i32, i32 }
%"class.std::shared_ptr.0" = type { %"class.std::__shared_ptr.1" }
%"class.std::__shared_ptr.1" = type { ptr, %"class.std::__shared_count" }
%"class.std::shared_ptr.3" = type { %"class.std::__shared_ptr.4" }
%"class.std::__shared_ptr.4" = type { ptr, %"class.std::__shared_count" }
%"struct.rocksdb::CacheUsageOptions" = type { %"struct.rocksdb::CacheEntryRoleOptions", %"class.std::map" }
%"struct.rocksdb::CacheEntryRoleOptions" = type { i32 }
%"class.std::map" = type { %"class.std::_Rb_tree" }
%"class.std::_Rb_tree" = type { %"struct.std::_Rb_tree<rocksdb::CacheEntryRole, std::pair<const rocksdb::CacheEntryRole, rocksdb::CacheEntryRoleOptions>, std::_Select1st<std::pair<const rocksdb::CacheEntryRole, rocksdb::CacheEntryRoleOptions>>, std::less<rocksdb::CacheEntryRole>>::_Rb_tree_impl" }
%"struct.std::_Rb_tree<rocksdb::CacheEntryRole, std::pair<const rocksdb::CacheEntryRole, rocksdb::CacheEntryRoleOptions>, std::_Select1st<std::pair<const rocksdb::CacheEntryRole, rocksdb::CacheEntryRoleOptions>>, std::less<rocksdb::CacheEntryRole>>::_Rb_tree_impl" = type { %"struct.std::_Rb_tree_key_compare", %"struct.std::_Rb_tree_header" }
%"struct.std::_Rb_tree_key_compare" = type { %"struct.std::less" }
%"struct.std::less" = type { i8 }
%"struct.std::_Rb_tree_header" = type { %"struct.std::_Rb_tree_node_base", i64 }
%"struct.std::_Rb_tree_node_base" = type { i32, ptr, ptr, ptr }
%"class.std::shared_ptr.9" = type { %"class.std::__shared_ptr.10" }
%"class.std::__shared_ptr.10" = type { ptr, %"class.std::__shared_count" }
%"class.std::unique_ptr.14" = type { %"struct.std::__uniq_ptr_data.15" }
%"struct.std::__uniq_ptr_data.15" = type { %"class.std::__uniq_ptr_impl.16" }
%"class.std::__uniq_ptr_impl.16" = type { %"class.std::tuple.17" }
%"class.std::tuple.17" = type { %"struct.std::_Tuple_impl.18" }
%"struct.std::_Tuple_impl.18" = type { %"struct.std::_Head_base.21" }
%"struct.std::_Head_base.21" = type { ptr }
%"class.rocksdb::OffsetableCacheKey" = type { %"class.rocksdb::CacheKey" }
%"class.rocksdb::CacheKey" = type { i64, i64 }
%"struct.rocksdb::PersistentCacheOptions" = type { %"class.std::shared_ptr.3", %"class.rocksdb::OffsetableCacheKey", ptr }
%"class.rocksdb::Footer" = type <{ i64, i32, i32, %"class.rocksdb::BlockHandle", %"class.rocksdb::BlockHandle", i32, i8, [3 x i8] }>
%"class.std::unique_ptr.22" = type { %"struct.std::__uniq_ptr_data.23" }
%"struct.std::__uniq_ptr_data.23" = type { %"class.std::__uniq_ptr_impl.24" }
%"class.std::__uniq_ptr_impl.24" = type { %"class.std::tuple.25" }
%"class.std::tuple.25" = type { %"struct.std::_Tuple_impl.26" }
%"struct.std::_Tuple_impl.26" = type { %"struct.std::_Head_base.29" }
%"struct.std::_Head_base.29" = type { ptr }
%"class.std::unique_ptr.30" = type { %"struct.std::__uniq_ptr_data.31" }
%"struct.std::__uniq_ptr_data.31" = type { %"class.std::__uniq_ptr_impl.32" }
%"class.std::__uniq_ptr_impl.32" = type { %"class.std::tuple.33" }
%"class.std::tuple.33" = type { %"struct.std::_Tuple_impl.34" }
%"struct.std::_Tuple_impl.34" = type { %"struct.std::_Head_base.37" }
%"struct.std::_Head_base.37" = type { ptr }
%"class.std::unique_ptr.38" = type { %"struct.std::__uniq_ptr_data.39" }
%"struct.std::__uniq_ptr_data.39" = type { %"class.std::__uniq_ptr_impl.40" }
%"class.std::__uniq_ptr_impl.40" = type { %"class.std::tuple.41" }
%"class.std::tuple.41" = type { %"struct.std::_Tuple_impl.42" }
%"struct.std::_Tuple_impl.42" = type { %"struct.std::_Head_base.45" }
%"struct.std::_Head_base.45" = type { ptr }
%"class.std::shared_ptr.46" = type { %"class.std::__shared_ptr.47" }
%"class.std::__shared_ptr.47" = type { ptr, %"class.std::__shared_count" }
%"class.std::shared_ptr.49" = type { %"class.std::__shared_ptr.50" }
%"class.std::__shared_ptr.50" = type { ptr, %"class.std::__shared_count" }
%"class.std::shared_ptr.52" = type { %"class.std::__shared_ptr.53" }
%"class.std::__shared_ptr.53" = type { ptr, %"class.std::__shared_count" }
%"struct.rocksdb::BlockCreateContext" = type { ptr, ptr, ptr, ptr, ptr, i32, i8, i8, i8, i8 }
%"class.std::unique_ptr.55" = type { %"struct.std::__uniq_ptr_data.56" }
%"struct.std::__uniq_ptr_data.56" = type { %"class.std::__uniq_ptr_impl.57" }
%"class.std::__uniq_ptr_impl.57" = type { %"class.std::tuple.58" }
%"class.std::tuple.58" = type { %"struct.std::_Tuple_impl.59" }
%"struct.std::_Tuple_impl.59" = type { %"struct.std::_Head_base.62" }
%"struct.std::_Head_base.62" = type { ptr }

; Function Attrs: mustprogress nounwind uwtable
define linkonce_odr void @_ZN7rocksdb8CacheKeyC2Emm(ptr noundef nonnull align 8 dereferenceable(16) %this, i64 noundef %file_num_etc64, i64 noundef %offset_etc64) unnamed_addr #1 comdat align 2 {
entry:
  %this.addr = alloca ptr, align 8
  %file_num_etc64.addr = alloca i64, align 8
  %offset_etc64.addr = alloca i64, align 8
  store ptr %this, ptr %this.addr, align 8
  store i64 %file_num_etc64, ptr %file_num_etc64.addr, align 8
  store i64 %offset_etc64, ptr %offset_etc64.addr, align 8
  %this1 = load ptr, ptr %this.addr, align 8
  %file_num_etc64_ = getelementptr inbounds %"class.rocksdb::CacheKey", ptr %this1, i32 0, i32 0
  %0 = load i64, ptr %file_num_etc64.addr, align 8
  store i64 %0, ptr %file_num_etc64_, align 8
  %offset_etc64_ = getelementptr inbounds %"class.rocksdb::CacheKey", ptr %this1, i32 0, i32 1
  %1 = load i64, ptr %offset_etc64.addr, align 8
  store i64 %1, ptr %offset_etc64_, align 8
  ret void
}

; Function Attrs: mustprogress nounwind uwtable
define linkonce_odr void @_ZN7rocksdb5SliceC2EPKcm(ptr noundef nonnull align 8 dereferenceable(16) %this, ptr noundef %d, i64 noundef %n) unnamed_addr #1 comdat align 2 {
entry:
  %this.addr = alloca ptr, align 8
  %d.addr = alloca ptr, align 8
  %n.addr = alloca i64, align 8
  store ptr %this, ptr %this.addr, align 8
  store ptr %d, ptr %d.addr, align 8
  store i64 %n, ptr %n.addr, align 8
  %this1 = load ptr, ptr %this.addr, align 8
  %data_ = getelementptr inbounds %"class.rocksdb::Slice", ptr %this1, i32 0, i32 0
  %0 = load ptr, ptr %d.addr, align 8
  store ptr %0, ptr %data_, align 8
  %size_ = getelementptr inbounds %"class.rocksdb::Slice", ptr %this1, i32 0, i32 1
  %1 = load i64, ptr %n.addr, align 8
  store i64 %1, ptr %size_, align 8
  ret void
}

; Function Attrs: mustprogress uwtable
define linkonce_odr { i64, i64 } @_ZNK7rocksdb18OffsetableCacheKey10WithOffsetEm(ptr noundef nonnull align 8 dereferenceable(16) %this, i64 noundef %offset) #0 comdat align 2 {
entry:
  %retval = alloca %"class.rocksdb::CacheKey", align 8
  %this.addr = alloca ptr, align 8
  %offset.addr = alloca i64, align 8
  store ptr %this, ptr %this.addr, align 8
  store i64 %offset, ptr %offset.addr, align 8
  %this1 = load ptr, ptr %this.addr, align 8
  %file_num_etc64_ = getelementptr inbounds %"class.rocksdb::CacheKey", ptr %this1, i32 0, i32 0
  %0 = load i64, ptr %file_num_etc64_, align 8
  %offset_etc64_ = getelementptr inbounds %"class.rocksdb::CacheKey", ptr %this1, i32 0, i32 1
  %1 = load i64, ptr %offset_etc64_, align 8
  %2 = load i64, ptr %offset.addr, align 8
  %xor = xor i64 %1, %2
  call void @_ZN7rocksdb8CacheKeyC2Emm(ptr noundef nonnull align 8 dereferenceable(16) %retval, i64 noundef %0, i64 noundef %xor)
  %3 = load { i64, i64 }, ptr %retval, align 8
  ret { i64, i64 } %3
}

; Function Attrs: mustprogress nounwind uwtable
define linkonce_odr noundef i64 @_ZNK7rocksdb11BlockHandle6offsetEv(ptr noundef nonnull align 8 dereferenceable(16) %this) #1 comdat align 2 {
entry:
  %this.addr = alloca ptr, align 8
  store ptr %this, ptr %this.addr, align 8
  %this1 = load ptr, ptr %this.addr, align 8
  %offset_ = getelementptr inbounds %"class.rocksdb::BlockHandle", ptr %this1, i32 0, i32 0
  %0 = load i64, ptr %offset_, align 8
  ret i64 %0
}

; Function Attrs: mustprogress uwtable
define linkonce_odr { ptr, i64 } @_ZNK7rocksdb8CacheKey7AsSliceEv(ptr noundef nonnull align 8 dereferenceable(16) %this) #0 comdat align 2 {
entry:
  %retval = alloca %"class.rocksdb::Slice", align 8
  %this.addr = alloca ptr, align 8
  store ptr %this, ptr %this.addr, align 8
  %this1 = load ptr, ptr %this.addr, align 8
  call void @_ZN7rocksdb5SliceC2EPKcm(ptr noundef nonnull align 8 dereferenceable(16) %retval, ptr noundef %this1, i64 noundef 16)
  %0 = load { ptr, i64 }, ptr %retval, align 8
  ret { ptr, i64 } %0
}

; Function Attrs: mustprogress uwtable
define { i64, i64 } @_ZN7rocksdb15BlockBasedTable11GetCacheKeyERKNS_18OffsetableCacheKeyERKNS_11BlockHandleE(ptr noundef nonnull align 8 dereferenceable(16) %base_cache_key, ptr noundef nonnull align 8 dereferenceable(16) %handle) #0 align 2 {
entry:
  %retval = alloca %"class.rocksdb::CacheKey", align 8
  %base_cache_key.addr = alloca ptr, align 8
  %handle.addr = alloca ptr, align 8
  store ptr %base_cache_key, ptr %base_cache_key.addr, align 8
  store ptr %handle, ptr %handle.addr, align 8
  %0 = load ptr, ptr %base_cache_key.addr, align 8
  %1 = load ptr, ptr %handle.addr, align 8
  %call = call noundef i64 @_ZNK7rocksdb11BlockHandle6offsetEv(ptr noundef nonnull align 8 dereferenceable(16) %1)
  %shr = lshr i64 %call, 2
  %call1 = call { i64, i64 } @_ZNK7rocksdb18OffsetableCacheKey10WithOffsetEm(ptr noundef nonnull align 8 dereferenceable(16) %0, i64 noundef %shr)
  %2 = getelementptr inbounds { i64, i64 }, ptr %retval, i32 0, i32 0
  %3 = extractvalue { i64, i64 } %call1, 0
  store i64 %3, ptr %2, align 8
  %4 = getelementptr inbounds { i64, i64 }, ptr %retval, i32 0, i32 1
  %5 = extractvalue { i64, i64 } %call1, 1
  store i64 %5, ptr %4, align 8
  %6 = load { i64, i64 }, ptr %retval, align 8
  ret { i64, i64 } %6
}

; Function Attrs: mustprogress nounwind uwtable
define linkonce_odr noundef ptr @_ZNKSt12__shared_ptrIN7rocksdb5CacheELN9__gnu_cxx12_Lock_policyE2EE3getEv(ptr noundef nonnull align 8 dereferenceable(16) %this) #1 comdat align 2 {
entry:
  %this.addr = alloca ptr, align 8
  store ptr %this, ptr %this.addr, align 8
  %this1 = load ptr, ptr %this.addr, align 8
  %_M_ptr = getelementptr inbounds %"class.std::__shared_ptr.1", ptr %this1, i32 0, i32 0
  %0 = load ptr, ptr %_M_ptr, align 8
  ret ptr %0
}

; Function Attrs: mustprogress uwtable
define noundef zeroext i1 @_ZNK7rocksdb15BlockBasedTable17TEST_BlockInCacheERKNS_11BlockHandleE(ptr noundef nonnull align 8 dereferenceable(24) %this, ptr noundef nonnull align 8 dereferenceable(16) %handle) #0 align 2 {
entry:
  %retval = alloca i1, align 1
  %this.addr = alloca ptr, align 8
  %handle.addr = alloca ptr, align 8
  %cache = alloca ptr, align 8
  %key = alloca %"class.rocksdb::CacheKey", align 8
  %cache_handle = alloca ptr, align 8
  %ref.tmp = alloca %"class.rocksdb::Slice", align 8
  store ptr %this, ptr %this.addr, align 8
  store ptr %handle, ptr %handle.addr, align 8
  %this1 = load ptr, ptr %this.addr, align 8
  %rep_ = getelementptr inbounds %"class.rocksdb::BlockBasedTable", ptr %this1, i32 0, i32 1
  %0 = load ptr, ptr %rep_, align 8
  %table_options = getelementptr inbounds %"struct.rocksdb::BlockBasedTable::Rep", ptr %0, i32 0, i32 2
  %block_cache = getelementptr inbounds %"struct.rocksdb::BlockBasedTableOptions", ptr %table_options, i32 0, i32 11
  %call = call noundef ptr @_ZNKSt12__shared_ptrIN7rocksdb5CacheELN9__gnu_cxx12_Lock_policyE2EE3getEv(ptr noundef nonnull align 8 dereferenceable(16) %block_cache) #3
  store ptr %call, ptr %cache, align 8
  %1 = load ptr, ptr %cache, align 8
  %cmp = icmp eq ptr %1, null
  br i1 %cmp, label %if.then, label %if.end

if.then:                                          ; preds = %entry
  store i1 false, ptr %retval, align 1
  br label %return

if.end:                                           ; preds = %entry
  %rep_2 = getelementptr inbounds %"class.rocksdb::BlockBasedTable", ptr %this1, i32 0, i32 1
  %2 = load ptr, ptr %rep_2, align 8
  %base_cache_key = getelementptr inbounds %"struct.rocksdb::BlockBasedTable::Rep", ptr %2, i32 0, i32 7
  %3 = load ptr, ptr %handle.addr, align 8
  %call3 = call { i64, i64 } @_ZN7rocksdb15BlockBasedTable11GetCacheKeyERKNS_18OffsetableCacheKeyERKNS_11BlockHandleE(ptr noundef nonnull align 8 dereferenceable(16) %base_cache_key, ptr noundef nonnull align 8 dereferenceable(16) %3)
  %4 = getelementptr inbounds { i64, i64 }, ptr %key, i32 0, i32 0
  %5 = extractvalue { i64, i64 } %call3, 0
  store i64 %5, ptr %4, align 8
  %6 = getelementptr inbounds { i64, i64 }, ptr %key, i32 0, i32 1
  %7 = extractvalue { i64, i64 } %call3, 1
  store i64 %7, ptr %6, align 8
  %8 = load ptr, ptr %cache, align 8
  %call4 = call { ptr, i64 } @_ZNK7rocksdb8CacheKey7AsSliceEv(ptr noundef nonnull align 8 dereferenceable(16) %key)
  %9 = getelementptr inbounds { ptr, i64 }, ptr %ref.tmp, i32 0, i32 0
  %10 = extractvalue { ptr, i64 } %call4, 0
  store ptr %10, ptr %9, align 8
  %11 = getelementptr inbounds { ptr, i64 }, ptr %ref.tmp, i32 0, i32 1
  %12 = extractvalue { ptr, i64 } %call4, 1
  store i64 %12, ptr %11, align 8
  %vtable = load ptr, ptr %8, align 8
  %vfn = getelementptr inbounds ptr, ptr %vtable, i64 5
  %13 = load ptr, ptr %vfn, align 8
  %call5 = call noundef ptr %13(ptr noundef nonnull align 8 dereferenceable(56) %8, ptr noundef nonnull align 8 dereferenceable(16) %ref.tmp, ptr noundef null, ptr noundef null, i32 noundef 1, ptr noundef null)
  store ptr %call5, ptr %cache_handle, align 8
  %14 = load ptr, ptr %cache_handle, align 8
  %cmp6 = icmp eq ptr %14, null
  br i1 %cmp6, label %if.then7, label %if.end8

if.then7:                                         ; preds = %if.end
  store i1 false, ptr %retval, align 1
  br label %return

if.end8:                                          ; preds = %if.end
  %15 = load ptr, ptr %cache, align 8
  %16 = load ptr, ptr %cache_handle, align 8
  %vtable9 = load ptr, ptr %15, align 8
  %vfn10 = getelementptr inbounds ptr, ptr %vtable9, i64 7
  %17 = load ptr, ptr %vfn10, align 8
  %call11 = call noundef zeroext i1 %17(ptr noundef nonnull align 8 dereferenceable(56) %15, ptr noundef %16, i1 noundef zeroext false)
  store i1 true, ptr %retval, align 1
  br label %return

return:                                           ; preds = %if.end8, %if.then7, %if.then
  %18 = load i1, ptr %retval, align 1
  ret i1 %18
}