; Function Attrs: mustprogress uwtable
define noundef zeroext i1 @_ZNK7rocksdb15BlockBasedTable17TEST_BlockInCacheERKNS_11BlockHandleE(ptr nocapture noundef nonnull readonly align 8 dereferenceable(24) %this, ptr nocapture noundef nonnull readonly align 8 dereferenceable(16) %handle) local_unnamed_addr #3 align 2 {
entry:
  %key = alloca %"class.rocksdb::CacheKey", align 8
  %ref.tmp = alloca %"class.rocksdb::Slice", align 8
  %rep_ = getelementptr inbounds i8, ptr %this, i64 8
  %0 = load ptr, ptr %rep_, align 8
  %block_cache = getelementptr inbounds i8, ptr %0, i64 72
  %1 = load ptr, ptr %block_cache, align 8
  %cmp = icmp eq ptr %1, null
  br i1 %cmp, label %return, label %if.end

if.end:                                           ; preds = %entry
  %base_cache_key = getelementptr inbounds i8, ptr %0, i64 304
  %2 = load i64, ptr %handle, align 8
  %shr.i = lshr i64 %2, 2
  %3 = load i64, ptr %base_cache_key, align 8
  %offset_etc64_.i.i = getelementptr inbounds i8, ptr %0, i64 312
  %4 = load i64, ptr %offset_etc64_.i.i, align 8
  %xor.i.i = xor i64 %4, %shr.i
  store i64 %3, ptr %key, align 8
  %5 = getelementptr inbounds i8, ptr %key, i64 8
  store i64 %xor.i.i, ptr %5, align 8
  store ptr %key, ptr %ref.tmp, align 8
  %6 = getelementptr inbounds i8, ptr %ref.tmp, i64 8
  store i64 16, ptr %6, align 8
  %vtable = load ptr, ptr %1, align 8
  %vfn = getelementptr inbounds i8, ptr %vtable, i64 40
  %7 = load ptr, ptr %vfn, align 8
  %call5 = call noundef ptr %7(ptr noundef nonnull align 8 dereferenceable(56) %1, ptr noundef nonnull align 8 dereferenceable(16) %ref.tmp, ptr noundef null, ptr noundef null, i32 noundef 1, ptr noundef null)
  %cmp6 = icmp eq ptr %call5, null
  br i1 %cmp6, label %return, label %if.end8

if.end8:                                          ; preds = %if.end
  %vtable9 = load ptr, ptr %1, align 8
  %vfn10 = getelementptr inbounds i8, ptr %vtable9, i64 56
  %8 = load ptr, ptr %vfn10, align 8
  %call11 = call noundef zeroext i1 %8(ptr noundef nonnull align 8 dereferenceable(56) %1, ptr noundef nonnull %call5, i1 noundef zeroext false)
  br label %return

return:                                           ; preds = %if.end, %entry, %if.end8
  %retval.0 = phi i1 [ true, %if.end8 ], [ false, %entry ], [ false, %if.end ]
  ret i1 %retval.0
}